(dp0
S'BERTOS_PATH'
p1
S'.'
p2
sS'SELECTED_FREQ'
p3
V72000000
p4
sS'WIZARD_VERSION'
p5
I3
sS'PROJECT_NAME'
p6
VFirmware
p7
sS'TOOLCHAIN'
p8
(dp9
Vpath
p10
V/usr/bin/i686-linux-gnu-gcc-4.5
p11
ssS'ENABLED_MODULES'
p12
(lp13
sS'CPU_NAME'
p14
VSTM32F103RB
p15
sS'PROJECT_HW_PATH'
p16
VFirmware
p17
sS'PROJECT_SRC_PATH'
p18
VFirmware
p19
sS'PRESET'
p20
NsS'OUTPUT'
p21
(lp22
S'codelite'
p23
as.